; ModuleID = '45/1725.c'
source_filename = "45/1725.c"
target datalayout = "e-m:e-p270:32:32-p271:32:32-p272:64:64-i64:64-f80:128-n8:16:32:64-S128"
target triple = "x86_64-pc-linux-gnu"

@.str = private unnamed_addr constant [3 x i8] c"%d\00", align 1

; Function Attrs: noinline nounwind uwtable
define dso_local i32 @main() #0 {
  %1 = alloca i32, align 4
  %2 = alloca [101 x i8], align 16
  %3 = alloca i32, align 4
  %4 = alloca [51 x i8], align 16
  %5 = alloca [51 x i8], align 16
  %6 = alloca i32, align 4
  %7 = alloca i32, align 4
  %8 = alloca i32, align 4
  %9 = alloca i32, align 4
  %10 = alloca i32, align 4
  %11 = alloca [51 x i8], align 16
  store i32 0, i32* %1, align 4
  %12 = getelementptr inbounds [101 x i8], [101 x i8]* %2, i64 0, i64 0
  %13 = call i32 (i8*, ...) bitcast (i32 (...)* @gets to i32 (i8*, ...)*)(i8* %12)
  %14 = getelementptr inbounds [101 x i8], [101 x i8]* %2, i64 0, i64 0
  %15 = call i64 @strlen(i8* %14) #3
  %16 = trunc i64 %15 to i32
  store i32 %16, i32* %3, align 4
  store i32 0, i32* %6, align 4
  br label %17

17:                                               ; preds = %43, %0
  %18 = load i32, i32* %6, align 4
  %19 = load i32, i32* %3, align 4
  %20 = icmp slt i32 %18, %19
  br i1 %20, label %21, label %46

21:                                               ; preds = %17
  %22 = load i32, i32* %6, align 4
  %23 = sext i32 %22 to i64
  %24 = getelementptr inbounds [101 x i8], [101 x i8]* %2, i64 0, i64 %23
  %25 = load i8, i8* %24, align 1
  %26 = sext i8 %25 to i32
  %27 = icmp ne i32 %26, 32
  br i1 %27, label %28, label %36

28:                                               ; preds = %21
  %29 = load i32, i32* %6, align 4
  %30 = sext i32 %29 to i64
  %31 = getelementptr inbounds [101 x i8], [101 x i8]* %2, i64 0, i64 %30
  %32 = load i8, i8* %31, align 1
  %33 = load i32, i32* %6, align 4
  %34 = sext i32 %33 to i64
  %35 = getelementptr inbounds [51 x i8], [51 x i8]* %4, i64 0, i64 %34
  store i8 %32, i8* %35, align 1
  br label %42

36:                                               ; preds = %21
  %37 = load i32, i32* %6, align 4
  %38 = sext i32 %37 to i64
  %39 = getelementptr inbounds [51 x i8], [51 x i8]* %4, i64 0, i64 %38
  store i8 0, i8* %39, align 1
  %40 = load i32, i32* %6, align 4
  %41 = add nsw i32 %40, 1
  store i32 %41, i32* %6, align 4
  br label %46

42:                                               ; preds = %28
  br label %43

43:                                               ; preds = %42
  %44 = load i32, i32* %6, align 4
  %45 = add nsw i32 %44, 1
  store i32 %45, i32* %6, align 4
  br label %17

46:                                               ; preds = %36, %17
  %47 = load i32, i32* %6, align 4
  store i32 %47, i32* %7, align 4
  br label %48

48:                                               ; preds = %52, %46
  %49 = load i32, i32* %6, align 4
  %50 = load i32, i32* %3, align 4
  %51 = icmp slt i32 %49, %50
  br i1 %51, label %52, label %64

52:                                               ; preds = %48
  %53 = load i32, i32* %6, align 4
  %54 = sext i32 %53 to i64
  %55 = getelementptr inbounds [101 x i8], [101 x i8]* %2, i64 0, i64 %54
  %56 = load i8, i8* %55, align 1
  %57 = load i32, i32* %6, align 4
  %58 = load i32, i32* %7, align 4
  %59 = sub nsw i32 %57, %58
  %60 = sext i32 %59 to i64
  %61 = getelementptr inbounds [51 x i8], [51 x i8]* %5, i64 0, i64 %60
  store i8 %56, i8* %61, align 1
  %62 = load i32, i32* %6, align 4
  %63 = add nsw i32 %62, 1
  store i32 %63, i32* %6, align 4
  br label %48

64:                                               ; preds = %48
  %65 = load i32, i32* %6, align 4
  %66 = load i32, i32* %7, align 4
  %67 = sub nsw i32 %65, %66
  %68 = sext i32 %67 to i64
  %69 = getelementptr inbounds [51 x i8], [51 x i8]* %5, i64 0, i64 %68
  store i8 0, i8* %69, align 1
  %70 = getelementptr inbounds [51 x i8], [51 x i8]* %5, i64 0, i64 0
  %71 = call i64 @strlen(i8* %70) #3
  %72 = trunc i64 %71 to i32
  store i32 %72, i32* %8, align 4
  %73 = getelementptr inbounds [51 x i8], [51 x i8]* %4, i64 0, i64 0
  %74 = call i64 @strlen(i8* %73) #3
  %75 = trunc i64 %74 to i32
  store i32 %75, i32* %9, align 4
  store i32 0, i32* %10, align 4
  br label %76

76:                                               ; preds = %104, %64
  %77 = load i32, i32* %10, align 4
  %78 = load i32, i32* %8, align 4
  %79 = icmp slt i32 %77, %78
  br i1 %79, label %80, label %105

80:                                               ; preds = %76
  %81 = load i32, i32* %10, align 4
  %82 = sext i32 %81 to i64
  %83 = getelementptr inbounds [51 x i8], [51 x i8]* %5, i64 0, i64 %82
  %84 = load i8, i8* %83, align 1
  %85 = sext i8 %84 to i32
  %86 = getelementptr inbounds [51 x i8], [51 x i8]* %4, i64 0, i64 0
  %87 = load i8, i8* %86, align 16
  %88 = sext i8 %87 to i32
  %89 = icmp ne i32 %85, %88
  br i1 %89, label %90, label %100

90:                                               ; preds = %80
  %91 = load i32, i32* %10, align 4
  %92 = sext i32 %91 to i64
  %93 = getelementptr inbounds [51 x i8], [51 x i8]* %5, i64 0, i64 %92
  %94 = load i8, i8* %93, align 1
  %95 = load i32, i32* %10, align 4
  %96 = sext i32 %95 to i64
  %97 = getelementptr inbounds [51 x i8], [51 x i8]* %11, i64 0, i64 %96
  store i8 %94, i8* %97, align 1
  %98 = load i32, i32* %10, align 4
  %99 = add nsw i32 %98, 1
  store i32 %99, i32* %10, align 4
  br label %104

100:                                              ; preds = %80
  %101 = load i32, i32* %10, align 4
  %102 = sext i32 %101 to i64
  %103 = getelementptr inbounds [51 x i8], [51 x i8]* %11, i64 0, i64 %102
  store i8 0, i8* %103, align 1
  br label %105

104:                                              ; preds = %90
  br label %76

105:                                              ; preds = %100, %76
  %106 = getelementptr inbounds [51 x i8], [51 x i8]* %11, i64 0, i64 0
  %107 = call i64 @strlen(i8* %106) #3
  %108 = call i32 (i8*, ...) @printf(i8* getelementptr inbounds ([3 x i8], [3 x i8]* @.str, i64 0, i64 0), i64 %107)
  ret i32 0
}

declare dso_local i32 @gets(...) #1

; Function Attrs: nounwind readonly
declare dso_local i64 @strlen(i8*) #2

declare dso_local i32 @printf(i8*, ...) #1


!llvm.module.flags = !{!0}
!llvm.ident = !{!1}

!0 = !{i32 1, !"wchar_size", i32 4}
!1 = !{!"clang version 10.0.0-4ubuntu1 "}
